target datalayout = "e-m:e-p270:32:32-p271:32:32-p272:64:64-i64:64-i128:128-f80:128-n8:16:32:64-S128"
target triple = "x86_64-pc-linux-gnu"

%struct.PS_UnicodesRec_ = type { %struct.FT_CMapRec_, i32, ptr }
%struct.FT_CMapRec_ = type { %struct.FT_CharMapRec_, ptr }
%struct.FT_CharMapRec_ = type { ptr, i32, i16, i16 }
%struct.PS_UniMap_ = type { i32, i32 }

; Function Attrs: nounwind uwtable
define internal i32 @ps_unicodes_char_index(ptr noundef %0, i32 noundef %1) #0 {
  %3 = alloca i32, align 4
  %4 = alloca ptr, align 8
  %5 = alloca i32, align 4
  %6 = alloca ptr, align 8
  %7 = alloca ptr, align 8
  %8 = alloca ptr, align 8
  %9 = alloca ptr, align 8
  %10 = alloca i32, align 4
  %11 = alloca i32, align 4
  store ptr %0, ptr %4, align 8, !tbaa !19
  store i32 %1, ptr %5, align 4, !tbaa !11
  call void @llvm.lifetime.start.p0(i64 8, ptr %6) #5
  store ptr null, ptr %6, align 8, !tbaa !31
  call void @llvm.lifetime.start.p0(i64 8, ptr %7) #5
  %12 = load ptr, ptr %4, align 8, !tbaa !19
  %13 = getelementptr inbounds nuw %struct.PS_UnicodesRec_, ptr %12, i32 0, i32 2
  %14 = load ptr, ptr %13, align 8, !tbaa !30
  store ptr %14, ptr %7, align 8, !tbaa !31
  call void @llvm.lifetime.start.p0(i64 8, ptr %8) #5
  %15 = load ptr, ptr %7, align 8, !tbaa !31
  %16 = load ptr, ptr %4, align 8, !tbaa !19
  %17 = getelementptr inbounds nuw %struct.PS_UnicodesRec_, ptr %16, i32 0, i32 1
  %18 = load i32, ptr %17, align 8, !tbaa !22
  %19 = zext i32 %18 to i64
  %20 = getelementptr inbounds nuw %struct.PS_UniMap_, ptr %15, i64 %19
  store ptr %20, ptr %8, align 8, !tbaa !31
  call void @llvm.lifetime.start.p0(i64 8, ptr %9) #5
  %21 = load ptr, ptr %7, align 8, !tbaa !31
  %22 = load ptr, ptr %8, align 8, !tbaa !31
  %23 = load ptr, ptr %7, align 8, !tbaa !31
  %24 = ptrtoint ptr %22 to i64
  %25 = ptrtoint ptr %23 to i64
  %26 = sub i64 %24, %25
  %27 = sdiv exact i64 %26, 8
  %28 = ashr i64 %27, 1
  %29 = getelementptr inbounds %struct.PS_UniMap_, ptr %21, i64 %28
  store ptr %29, ptr %9, align 8, !tbaa !31
  br label %30

30:                                               ; preds = %90, %2
  %31 = load ptr, ptr %7, align 8, !tbaa !31
  %32 = load ptr, ptr %8, align 8, !tbaa !31
  %33 = icmp ult ptr %31, %32
  br i1 %33, label %34, label %91

34:                                               ; preds = %30
  call void @llvm.lifetime.start.p0(i64 4, ptr %10) #5
  %35 = load ptr, ptr %9, align 8, !tbaa !31
  %36 = getelementptr inbounds nuw %struct.PS_UniMap_, ptr %35, i32 0, i32 0
  %37 = load i32, ptr %36, align 4, !tbaa !32
  %38 = load i32, ptr %5, align 4, !tbaa !11
  %39 = icmp eq i32 %37, %38
  br i1 %39, label %40, label %42

40:                                               ; preds = %34
  %41 = load ptr, ptr %9, align 8, !tbaa !31
  store ptr %41, ptr %6, align 8, !tbaa !31
  store i32 3, ptr %11, align 4
  br label %88

42:                                               ; preds = %34
  %43 = load ptr, ptr %9, align 8, !tbaa !31
  %44 = getelementptr inbounds nuw %struct.PS_UniMap_, ptr %43, i32 0, i32 0
  %45 = load i32, ptr %44, align 4, !tbaa !32
  %46 = zext i32 %45 to i64
  %47 = and i64 %46, -2147483649
  %48 = trunc i64 %47 to i32
  store i32 %48, ptr %10, align 4, !tbaa !11
  %49 = load i32, ptr %10, align 4, !tbaa !11
  %50 = load i32, ptr %5, align 4, !tbaa !11
  %51 = icmp eq i32 %49, %50
  br i1 %51, label %52, label %54

52:                                               ; preds = %42
  %53 = load ptr, ptr %9, align 8, !tbaa !31
  store ptr %53, ptr %6, align 8, !tbaa !31
  br label %54

54:                                               ; preds = %52, %42
  %55 = load i32, ptr %10, align 4, !tbaa !11
  %56 = load i32, ptr %5, align 4, !tbaa !11
  %57 = icmp ult i32 %55, %56
  br i1 %57, label %58, label %61

58:                                               ; preds = %54
  %59 = load ptr, ptr %9, align 8, !tbaa !31
  %60 = getelementptr inbounds %struct.PS_UniMap_, ptr %59, i64 1
  store ptr %60, ptr %7, align 8, !tbaa !31
  br label %63

61:                                               ; preds = %54
  %62 = load ptr, ptr %9, align 8, !tbaa !31
  store ptr %62, ptr %8, align 8, !tbaa !31
  br label %63

63:                                               ; preds = %61, %58
  %64 = load i32, ptr %5, align 4, !tbaa !11
  %65 = load i32, ptr %10, align 4, !tbaa !11
  %66 = sub i32 %64, %65
  %67 = load ptr, ptr %9, align 8, !tbaa !31
  %68 = zext i32 %66 to i64
  %69 = getelementptr inbounds nuw %struct.PS_UniMap_, ptr %67, i64 %68
  store ptr %69, ptr %9, align 8, !tbaa !31
  %70 = load ptr, ptr %9, align 8, !tbaa !31
  %71 = load ptr, ptr %8, align 8, !tbaa !31
  %72 = icmp uge ptr %70, %71
  br i1 %72, label %77, label %73

73:                                               ; preds = %63
  %74 = load ptr, ptr %9, align 8, !tbaa !31
  %75 = load ptr, ptr %7, align 8, !tbaa !31
  %76 = icmp ult ptr %74, %75
  br i1 %76, label %77, label %87

77:                                               ; preds = %73, %63
  %78 = load ptr, ptr %7, align 8, !tbaa !31
  %79 = load ptr, ptr %8, align 8, !tbaa !31
  %80 = load ptr, ptr %7, align 8, !tbaa !31
  %81 = ptrtoint ptr %79 to i64
  %82 = ptrtoint ptr %80 to i64
  %83 = sub i64 %81, %82
  %84 = sdiv exact i64 %83, 8
  %85 = ashr i64 %84, 1
  %86 = getelementptr inbounds %struct.PS_UniMap_, ptr %78, i64 %85
  store ptr %86, ptr %9, align 8, !tbaa !31
  br label %87

87:                                               ; preds = %77, %73
  store i32 0, ptr %11, align 4
  br label %88

88:                                               ; preds = %87, %40
  call void @llvm.lifetime.end.p0(i64 4, ptr %10) #5
  %89 = load i32, ptr %11, align 4
  switch i32 %89, label %101 [
    i32 0, label %90
    i32 3, label %91
  ]

90:                                               ; preds = %88
  br label %30, !llvm.loop !37

91:                                               ; preds = %88, %30
  %92 = load ptr, ptr %6, align 8, !tbaa !31
  %93 = icmp ne ptr %92, null
  br i1 %93, label %94, label %98

94:                                               ; preds = %91
  %95 = load ptr, ptr %6, align 8, !tbaa !31
  %96 = getelementptr inbounds nuw %struct.PS_UniMap_, ptr %95, i32 0, i32 1
  %97 = load i32, ptr %96, align 4, !tbaa !34
  store i32 %97, ptr %3, align 4
  store i32 1, ptr %11, align 4
  br label %99

98:                                               ; preds = %91
  store i32 0, ptr %3, align 4
  store i32 1, ptr %11, align 4
  br label %99

99:                                               ; preds = %98, %94
  call void @llvm.lifetime.end.p0(i64 8, ptr %9) #5
  call void @llvm.lifetime.end.p0(i64 8, ptr %8) #5
  call void @llvm.lifetime.end.p0(i64 8, ptr %7) #5
  call void @llvm.lifetime.end.p0(i64 8, ptr %6) #5
  %100 = load i32, ptr %3, align 4
  ret i32 %100

101:                                              ; preds = %88
  unreachable
}