; Function Attrs: nofree norecurse nosync nounwind memory(read, inaccessiblemem: none) uwtable
define internal i32 @ps_unicodes_char_index(ptr noundef readonly captures(none) %0, i32 noundef %1) #2 {
  %3 = getelementptr inbounds nuw i8, ptr %0, i64 24
  %4 = load i32, ptr %3, align 8, !tbaa !11
  %.not63 = icmp eq i32 %4, 0
  br i1 %.not63, label %._crit_edge.thread, label %.lr.ph.preheader

.lr.ph.preheader:                                 ; preds = %2
  %5 = getelementptr inbounds nuw i8, ptr %0, i64 32
  %6 = load ptr, ptr %5, align 8, !tbaa !21
  %7 = zext i32 %4 to i64
  %8 = lshr i64 %7, 1
  %9 = getelementptr inbounds nuw %struct.PS_UniMap_, ptr %6, i64 %8
  %10 = getelementptr inbounds nuw %struct.PS_UniMap_, ptr %6, i64 %7
  br label %.lr.ph

.lr.ph:                                           ; preds = %.lr.ph.preheader, %13
  %.03362 = phi ptr [ %.2, %13 ], [ %9, %.lr.ph.preheader ]
  %.03461 = phi ptr [ %.236, %13 ], [ %10, %.lr.ph.preheader ]
  %.03760 = phi ptr [ %.239, %13 ], [ %6, %.lr.ph.preheader ]
  %.04059 = phi ptr [ %spec.select, %13 ], [ null, %.lr.ph.preheader ]
  %11 = load i32, ptr %.03362, align 4, !tbaa !25
  %12 = icmp eq i32 %11, %1
  br i1 %12, label %.thread53, label %13

13:                                               ; preds = %.lr.ph
  %14 = and i32 %11, 2147483647
  %15 = icmp eq i32 %14, %1
  %spec.select = select i1 %15, ptr %.03362, ptr %.04059
  %16 = icmp ult i32 %14, %1
  %17 = getelementptr inbounds nuw i8, ptr %.03362, i64 8
  %.239 = select i1 %16, ptr %17, ptr %.03760
  %.236 = select i1 %16, ptr %.03461, ptr %.03362
  %18 = sub i32 %1, %14
  %19 = zext i32 %18 to i64
  %20 = getelementptr inbounds nuw %struct.PS_UniMap_, ptr %.03362, i64 %19
  %.not = icmp uge ptr %20, %.236
  %21 = icmp ult ptr %20, %.239
  %or.cond = or i1 %.not, %21
  %22 = ptrtoint ptr %.236 to i64
  %23 = ptrtoint ptr %.239 to i64
  %24 = sub i64 %22, %23
  %25 = ashr i64 %24, 4
  %26 = getelementptr inbounds %struct.PS_UniMap_, ptr %.239, i64 %25
  %.2 = select i1 %or.cond, ptr %26, ptr %20
  %27 = icmp ult ptr %.239, %.236
  br i1 %27, label %.lr.ph, label %._crit_edge

._crit_edge:                                      ; preds = %13
  %.not46 = icmp eq ptr %spec.select, null
  br i1 %.not46, label %._crit_edge.thread, label %.thread53

.thread53:                                        ; preds = %.lr.ph, %._crit_edge
  %.14156 = phi ptr [ %spec.select, %._crit_edge ], [ %.03362, %.lr.ph ]
  %28 = getelementptr inbounds nuw i8, ptr %.14156, i64 4
  %29 = load i32, ptr %28, align 4, !tbaa !27
  br label %._crit_edge.thread

._crit_edge.thread:                               ; preds = %2, %._crit_edge, %.thread53
  %.032 = phi i32 [ %29, %.thread53 ], [ 0, %._crit_edge ], [ 0, %2 ]
  ret i32 %.032
}